; Function Attrs: nounwind uwtable
define range(i32 0, 2) i32 @EVP_KEYMGMT_is_a(ptr noundef readonly captures(address_is_null) %0, ptr noundef %1) local_unnamed_addr #0 {
  %.not = icmp eq ptr %0, null
  br i1 %.not, label %11, label %3

3:                                                ; preds = %2
  %4 = getelementptr inbounds nuw i8, ptr %0, i64 32
  %5 = load ptr, ptr %4, align 8, !tbaa !17
  %6 = getelementptr inbounds nuw i8, ptr %0, i64 4
  %7 = load i32, ptr %6, align 4, !tbaa !12
  %8 = tail call i32 @evp_is_a(ptr noundef %5, i32 noundef %7, ptr noundef null, ptr noundef %1) #5
  %9 = icmp ne i32 %8, 0
  %10 = zext i1 %9 to i32
  br label %11

11:                                               ; preds = %3, %2
  %12 = phi i32 [ 0, %2 ], [ %10, %3 ]
  ret i32 %12
}